; Function Attrs: mustprogress uwtable
define internal fastcc void @_ZN10open_spiel11leduc_poker12_GLOBAL__N_123StatelessActionToStringB5cxx11El(ptr dead_on_unwind noalias writable align 8 %0, i64 noundef %1) unnamed_addr #3 personality ptr @__gxx_personality_v0 {
  %3 = alloca %"class.std::allocator", align 1
  %4 = alloca %"class.std::allocator", align 1
  %5 = alloca %"class.std::allocator", align 1
  %6 = alloca %"class.std::__cxx11::basic_string", align 8
  %7 = alloca %"class.absl::debian2::AlphaNum", align 8
  %8 = alloca %"class.absl::debian2::AlphaNum", align 8
  switch i64 %1, label %_ZN4absl7debian28AlphaNumC2EPKc.exit [
    i64 0, label %9
    i64 1, label %15
    i64 2, label %21
  ]

9:                                                ; preds = %2
  call void @_ZNSaIcEC1Ev(ptr noundef nonnull align 1 dereferenceable(1) %3) #28
  %10 = invoke noundef ptr @_ZNSt7__cxx1112basic_stringIcSt11char_traitsIcESaIcEE13_M_local_dataEv(ptr noundef nonnull align 8 dereferenceable(32) %0)
          to label %.noexc unwind label %13

.noexc:                                           ; preds = %9
  invoke void @_ZNSt7__cxx1112basic_stringIcSt11char_traitsIcESaIcEE12_Alloc_hiderC1EPcRKS3_(ptr noundef nonnull align 8 dereferenceable(8) %0, ptr noundef %10, ptr noundef nonnull align 1 dereferenceable(1) %3)
          to label %.noexc8 unwind label %13

.noexc8:                                          ; preds = %.noexc
  invoke void @_ZNSt7__cxx1112basic_stringIcSt11char_traitsIcESaIcEE12_M_constructIPKcEEvT_S8_St20forward_iterator_tag(ptr noundef nonnull align 8 dereferenceable(32) %0, ptr noundef nonnull @.str.69, ptr noundef nonnull getelementptr inbounds (i8, ptr @.str.69, i64 4))
          to label %_ZNSt7__cxx1112basic_stringIcSt11char_traitsIcESaIcEEC2IS3_EEPKcRKS3_.exit unwind label %11

11:                                               ; preds = %.noexc8
  %12 = landingpad { ptr, i32 }
          cleanup
  call void @_ZNSaIcED2Ev(ptr noundef nonnull align 1 dereferenceable(1) %0) #28
  br label %.body

13:                                               ; preds = %.noexc, %9
  %14 = landingpad { ptr, i32 }
          cleanup
  br label %.body

.body:                                            ; preds = %11, %13
  %eh.lpad-body = phi { ptr, i32 } [ %14, %13 ], [ %12, %11 ]
  call void @_ZNSaIcED1Ev(ptr noundef nonnull align 1 dereferenceable(1) %3) #28
  br label %39

15:                                               ; preds = %2
  call void @_ZNSaIcEC1Ev(ptr noundef nonnull align 1 dereferenceable(1) %4) #28
  %16 = invoke noundef ptr @_ZNSt7__cxx1112basic_stringIcSt11char_traitsIcESaIcEE13_M_local_dataEv(ptr noundef nonnull align 8 dereferenceable(32) %0)
          to label %.noexc9 unwind label %19

.noexc9:                                          ; preds = %15
  invoke void @_ZNSt7__cxx1112basic_stringIcSt11char_traitsIcESaIcEE12_Alloc_hiderC1EPcRKS3_(ptr noundef nonnull align 8 dereferenceable(8) %0, ptr noundef %16, ptr noundef nonnull align 1 dereferenceable(1) %4)
          to label %.noexc10 unwind label %19

.noexc10:                                         ; preds = %.noexc9
  invoke void @_ZNSt7__cxx1112basic_stringIcSt11char_traitsIcESaIcEE12_M_constructIPKcEEvT_S8_St20forward_iterator_tag(ptr noundef nonnull align 8 dereferenceable(32) %0, ptr noundef nonnull @.str.70, ptr noundef nonnull getelementptr inbounds (i8, ptr @.str.70, i64 4))
          to label %_ZNSt7__cxx1112basic_stringIcSt11char_traitsIcESaIcEEC2IS3_EEPKcRKS3_.exit unwind label %17

17:                                               ; preds = %.noexc10
  %18 = landingpad { ptr, i32 }
          cleanup
  call void @_ZNSaIcED2Ev(ptr noundef nonnull align 1 dereferenceable(1) %0) #28
  br label %.body11

19:                                               ; preds = %.noexc9, %15
  %20 = landingpad { ptr, i32 }
          cleanup
  br label %.body11

.body11:                                          ; preds = %17, %19
  %eh.lpad-body12 = phi { ptr, i32 } [ %20, %19 ], [ %18, %17 ]
  call void @_ZNSaIcED1Ev(ptr noundef nonnull align 1 dereferenceable(1) %4) #28
  br label %39

21:                                               ; preds = %2
  call void @_ZNSaIcEC1Ev(ptr noundef nonnull align 1 dereferenceable(1) %5) #28
  %22 = invoke noundef ptr @_ZNSt7__cxx1112basic_stringIcSt11char_traitsIcESaIcEE13_M_local_dataEv(ptr noundef nonnull align 8 dereferenceable(32) %0)
          to label %.noexc14 unwind label %25

.noexc14:                                         ; preds = %21
  invoke void @_ZNSt7__cxx1112basic_stringIcSt11char_traitsIcESaIcEE12_Alloc_hiderC1EPcRKS3_(ptr noundef nonnull align 8 dereferenceable(8) %0, ptr noundef %22, ptr noundef nonnull align 1 dereferenceable(1) %5)
          to label %.noexc15 unwind label %25

.noexc15:                                         ; preds = %.noexc14
  invoke void @_ZNSt7__cxx1112basic_stringIcSt11char_traitsIcESaIcEE12_M_constructIPKcEEvT_S8_St20forward_iterator_tag(ptr noundef nonnull align 8 dereferenceable(32) %0, ptr noundef nonnull @.str.71, ptr noundef nonnull getelementptr inbounds (i8, ptr @.str.71, i64 5))
          to label %_ZNSt7__cxx1112basic_stringIcSt11char_traitsIcESaIcEEC2IS3_EEPKcRKS3_.exit unwind label %23

23:                                               ; preds = %.noexc15
  %24 = landingpad { ptr, i32 }
          cleanup
  call void @_ZNSaIcED2Ev(ptr noundef nonnull align 1 dereferenceable(1) %0) #28
  br label %.body16

25:                                               ; preds = %.noexc14, %21
  %26 = landingpad { ptr, i32 }
          cleanup
  br label %.body16

.body16:                                          ; preds = %23, %25
  %eh.lpad-body17 = phi { ptr, i32 } [ %26, %25 ], [ %24, %23 ]
  call void @_ZNSaIcED1Ev(ptr noundef nonnull align 1 dereferenceable(1) %5) #28
  br label %39

_ZN4absl7debian28AlphaNumC2EPKc.exit:             ; preds = %2
  store ptr @.str.72, ptr %7, align 8
  %27 = getelementptr inbounds nuw i8, ptr %7, i64 8
  store i64 16, ptr %27, align 8
  %28 = getelementptr inbounds nuw i8, ptr %8, i64 16
  %29 = call noundef ptr @_ZN4absl7debian216numbers_internal15FastIntToBufferElPc(i64 noundef %1, ptr noundef nonnull %28)
  %30 = ptrtoint ptr %29 to i64
  %31 = ptrtoint ptr %28 to i64
  %32 = sub i64 %30, %31
  store ptr %28, ptr %8, align 8
  %33 = icmp sgt i64 %32, -1
  br i1 %33, label %_ZN4absl7debian28AlphaNumC2El.exit, label %34

34:                                               ; preds = %_ZN4absl7debian28AlphaNumC2EPKc.exit
  call void @llvm.trap()
  unreachable

_ZN4absl7debian28AlphaNumC2El.exit:               ; preds = %_ZN4absl7debian28AlphaNumC2EPKc.exit
  %35 = getelementptr inbounds nuw i8, ptr %8, i64 8
  store i64 %32, ptr %35, align 8
  call void @_ZN4absl7debian26StrCatB5cxx11ERKNS0_8AlphaNumES3_(ptr dead_on_unwind nonnull writable sret(%"class.std::__cxx11::basic_string") align 8 %6, ptr noundef nonnull align 8 dereferenceable(48) %7, ptr noundef nonnull align 8 dereferenceable(48) %8)
  invoke void @_ZN10open_spiel15SpielFatalErrorERKNSt7__cxx1112basic_stringIcSt11char_traitsIcESaIcEEE(ptr noundef nonnull align 8 dereferenceable(32) %6) #27
          to label %36 unwind label %37

36:                                               ; preds = %_ZN4absl7debian28AlphaNumC2El.exit
  unreachable

37:                                               ; preds = %_ZN4absl7debian28AlphaNumC2El.exit
  %38 = landingpad { ptr, i32 }
          cleanup
  call void @_ZNSt7__cxx1112basic_stringIcSt11char_traitsIcESaIcEED1Ev(ptr noundef nonnull align 8 dereferenceable(32) %6) #28
  br label %39

_ZNSt7__cxx1112basic_stringIcSt11char_traitsIcESaIcEEC2IS3_EEPKcRKS3_.exit: ; preds = %.noexc15, %.noexc10, %.noexc8
  %.sink = phi ptr [ %3, %.noexc8 ], [ %4, %.noexc10 ], [ %5, %.noexc15 ]
  call void @_ZNSaIcED1Ev(ptr noundef nonnull align 1 dereferenceable(1) %.sink) #28
  ret void

39:                                               ; preds = %37, %.body16, %.body11, %.body
  %.pn = phi { ptr, i32 } [ %eh.lpad-body, %.body ], [ %eh.lpad-body12, %.body11 ], [ %eh.lpad-body17, %.body16 ], [ %38, %37 ]
  resume { ptr, i32 } %.pn
}